; Function Attrs: nounwind uwtable
define ptr @l_Lake_instFromJsonToolchainVer(ptr noundef %0) local_unnamed_addr #0 {
  %2 = tail call ptr @l_Lean_Json_getStr_x3f(ptr noundef %0) #5
  %3 = ptrtoint ptr %2 to i64
  %4 = and i64 %3, 1
  %.not.i30 = icmp eq i64 %4, 0
  br i1 %.not.i30, label %8, label %5

5:                                                ; preds = %1
  %6 = lshr i64 %3, 1
  %7 = trunc i64 %6 to i32
  br label %lean_obj_tag.exit

8:                                                ; preds = %1
  %9 = getelementptr i8, ptr %2, i64 4
  %.val.i = load i32, ptr %9, align 4
  %10 = lshr i32 %.val.i, 24
  br label %lean_obj_tag.exit

lean_obj_tag.exit:                                ; preds = %5, %8
  %.0.i = phi i32 [ %7, %5 ], [ %10, %8 ]
  %11 = icmp eq i32 %.0.i, 0
  %.val29 = load i32, ptr %2, align 4, !tbaa !8
  %12 = icmp eq i32 %.val29, 1
  br i1 %11, label %13, label %37

13:                                               ; preds = %lean_obj_tag.exit
  br i1 %12, label %64, label %14

14:                                               ; preds = %13
  %15 = getelementptr inbounds nuw i8, ptr %2, i64 8
  %16 = load ptr, ptr %15, align 8, !tbaa !4
  %17 = ptrtoint ptr %16 to i64
  %18 = and i64 %17, 1
  %.not38 = icmp eq i64 %18, 0
  br i1 %.not38, label %19, label %lean_inc.exit25

19:                                               ; preds = %14
  %.val.i31 = load i32, ptr %16, align 4, !tbaa !8
  %20 = icmp sgt i32 %.val.i31, 0
  br i1 %20, label %21, label %23, !prof !11

21:                                               ; preds = %19
  %22 = add nuw i32 %.val.i31, 1
  store i32 %22, ptr %16, align 4, !tbaa !8
  br label %lean_inc.exit25

23:                                               ; preds = %19
  %.not.i32 = icmp eq i32 %.val.i31, 0
  br i1 %.not.i32, label %lean_inc.exit25, label %24

24:                                               ; preds = %23
  tail call void @lean_inc_ref_cold(ptr noundef nonnull %16) #5
  br label %lean_inc.exit25

lean_inc.exit25:                                  ; preds = %24, %23, %21, %14
  br i1 %.not.i30, label %25, label %lean_dec.exit26

25:                                               ; preds = %lean_inc.exit25
  %26 = load i32, ptr %2, align 4, !tbaa !8
  %27 = icmp sgt i32 %26, 1
  br i1 %27, label %28, label %30, !prof !11

28:                                               ; preds = %25
  %29 = add nsw i32 %26, -1
  store i32 %29, ptr %2, align 4, !tbaa !8
  br label %lean_dec.exit26

30:                                               ; preds = %25
  %.not.i = icmp eq i32 %26, 0
  br i1 %.not.i, label %lean_dec.exit26, label %31

31:                                               ; preds = %30
  tail call void @lean_dec_ref_cold(ptr noundef nonnull %2) #5
  br label %lean_dec.exit26

lean_dec.exit26:                                  ; preds = %31, %30, %28, %lean_inc.exit25
  tail call void @lean_inc_heartbeat() #5
  %32 = tail call noalias ptr @mi_malloc_small(i64 noundef 16) #5
  %33 = icmp eq ptr %32, null
  br i1 %33, label %34, label %lean_alloc_ctor.exit

34:                                               ; preds = %lean_dec.exit26
  tail call void @lean_internal_panic_out_of_memory() #6
  unreachable

lean_alloc_ctor.exit:                             ; preds = %lean_dec.exit26
  %35 = getelementptr inbounds nuw i8, ptr %32, i64 4
  store i32 1, ptr %32, align 4, !tbaa !8
  store i32 65552, ptr %35, align 4
  %36 = getelementptr inbounds nuw i8, ptr %32, i64 8
  store ptr %16, ptr %36, align 8, !tbaa !4
  br label %64

37:                                               ; preds = %lean_obj_tag.exit
  %38 = getelementptr inbounds nuw i8, ptr %2, i64 8
  %39 = load ptr, ptr %38, align 8, !tbaa !4
  br i1 %12, label %40, label %42

40:                                               ; preds = %37
  %41 = tail call ptr @l_Lake_ToolchainVer_ofString(ptr noundef %39)
  store ptr %41, ptr %38, align 8, !tbaa !4
  br label %64

42:                                               ; preds = %37
  %43 = ptrtoint ptr %39 to i64
  %44 = and i64 %43, 1
  %.not = icmp eq i64 %44, 0
  br i1 %.not, label %45, label %lean_inc.exit

45:                                               ; preds = %42
  %.val.i33 = load i32, ptr %39, align 4, !tbaa !8
  %46 = icmp sgt i32 %.val.i33, 0
  br i1 %46, label %47, label %49, !prof !11

47:                                               ; preds = %45
  %48 = add nuw i32 %.val.i33, 1
  store i32 %48, ptr %39, align 4, !tbaa !8
  br label %lean_inc.exit

49:                                               ; preds = %45
  %.not.i34 = icmp eq i32 %.val.i33, 0
  br i1 %.not.i34, label %lean_inc.exit, label %50

50:                                               ; preds = %49
  tail call void @lean_inc_ref_cold(ptr noundef nonnull %39) #5
  br label %lean_inc.exit

lean_inc.exit:                                    ; preds = %50, %49, %47, %42
  br i1 %.not.i30, label %51, label %lean_dec.exit

51:                                               ; preds = %lean_inc.exit
  %52 = load i32, ptr %2, align 4, !tbaa !8
  %53 = icmp sgt i32 %52, 1
  br i1 %53, label %54, label %56, !prof !11

54:                                               ; preds = %51
  %55 = add nsw i32 %52, -1
  store i32 %55, ptr %2, align 4, !tbaa !8
  br label %lean_dec.exit

56:                                               ; preds = %51
  %.not.i27 = icmp eq i32 %52, 0
  br i1 %.not.i27, label %lean_dec.exit, label %57

57:                                               ; preds = %56
  tail call void @lean_dec_ref_cold(ptr noundef nonnull %2) #5
  br label %lean_dec.exit

lean_dec.exit:                                    ; preds = %57, %56, %54, %lean_inc.exit
  %58 = tail call ptr @l_Lake_ToolchainVer_ofString(ptr noundef %39)
  tail call void @lean_inc_heartbeat() #5
  %59 = tail call noalias ptr @mi_malloc_small(i64 noundef 16) #5
  %60 = icmp eq ptr %59, null
  br i1 %60, label %61, label %lean_alloc_ctor.exit36

61:                                               ; preds = %lean_dec.exit
  tail call void @lean_internal_panic_out_of_memory() #6
  unreachable

lean_alloc_ctor.exit36:                           ; preds = %lean_dec.exit
  %62 = getelementptr inbounds nuw i8, ptr %59, i64 4
  store i32 1, ptr %59, align 4, !tbaa !8
  store i32 16842768, ptr %62, align 4
  %63 = getelementptr inbounds nuw i8, ptr %59, i64 8
  store ptr %58, ptr %63, align 8, !tbaa !4
  br label %64

64:                                               ; preds = %40, %lean_alloc_ctor.exit36, %lean_alloc_ctor.exit, %13
  %.1 = phi ptr [ %32, %lean_alloc_ctor.exit ], [ %2, %13 ], [ %2, %40 ], [ %59, %lean_alloc_ctor.exit36 ]
  ret ptr %.1
}